target datalayout = "e-m:e-p270:32:32-p271:32:32-p272:64:64-i64:64-i128:128-f80:128-n8:16:32:64-S128"
target triple = "x86_64-pc-linux-gnu"

%struct.client = type { i64, i64, ptr, i8, i8, i8, i8, i32, ptr, ptr, ptr, ptr, ptr, i64, i64, i32, ptr, i32, i32, ptr, i64, ptr, ptr, ptr, ptr, ptr, i32, i32, i64, ptr, i64, ptr, i64, i64, i64, i32, ptr, i64, i64, i32, i32, i32, i32, i64, i64, ptr, i64, i64, i64, i64, i64, i64, i64, i64, [41 x i8], i32, ptr, i32, i32, i64, %struct.multiState, %struct.blockingState, i64, ptr, ptr, ptr, ptr, ptr, ptr, ptr, ptr, ptr, ptr, ptr, ptr, ptr, ptr, i64, ptr, i64, i32, ptr, ptr, ptr, i64, %struct.listNode, i64, i64, i32, i64, ptr }
%struct.multiState = type { ptr, i32, i32, i32, i64, i32 }
%struct.blockingState = type { i32, i64, i32, ptr, i32, i32, i64, ptr, ptr, i64 }
%struct.listNode = type { ptr, ptr, ptr }

; Function Attrs: nounwind uwtable
define dso_local i32 @checkBlockedClientTimeout(ptr noundef %0, i64 noundef %1) #0 {
  %3 = alloca i32, align 4
  %4 = alloca ptr, align 8
  %5 = alloca i64, align 8
  store ptr %0, ptr %4, align 8, !tbaa !5
  store i64 %1, ptr %5, align 8, !tbaa !10
  %6 = load ptr, ptr %4, align 8, !tbaa !5
  %7 = getelementptr inbounds nuw %struct.client, ptr %6, i32 0, i32 1
  %8 = load i64, ptr %7, align 8, !tbaa !12
  %9 = and i64 %8, 16
  %10 = icmp ne i64 %9, 0
  br i1 %10, label %11, label %26

11:                                               ; preds = %2
  %12 = load ptr, ptr %4, align 8, !tbaa !5
  %13 = getelementptr inbounds nuw %struct.client, ptr %12, i32 0, i32 61
  %14 = getelementptr inbounds nuw %struct.blockingState, ptr %13, i32 0, i32 1
  %15 = load i64, ptr %14, align 8, !tbaa !31
  %16 = icmp ne i64 %15, 0
  br i1 %16, label %17, label %26

17:                                               ; preds = %11
  %18 = load ptr, ptr %4, align 8, !tbaa !5
  %19 = getelementptr inbounds nuw %struct.client, ptr %18, i32 0, i32 61
  %20 = getelementptr inbounds nuw %struct.blockingState, ptr %19, i32 0, i32 1
  %21 = load i64, ptr %20, align 8, !tbaa !31
  %22 = load i64, ptr %5, align 8, !tbaa !10
  %23 = icmp slt i64 %21, %22
  br i1 %23, label %24, label %26

24:                                               ; preds = %17
  %25 = load ptr, ptr %4, align 8, !tbaa !5
  call void @unblockClientOnTimeout(ptr noundef %25)
  store i32 1, ptr %3, align 4
  br label %27

26:                                               ; preds = %17, %11, %2
  store i32 0, ptr %3, align 4
  br label %27

27:                                               ; preds = %26, %24
  %28 = load i32, ptr %3, align 4
  ret i32 %28
}