; Function Attrs: nounwind uwtable
define dso_local range(i32 0, 2) i32 @checkBlockedClientTimeout(ptr noundef %0, i64 noundef %1) local_unnamed_addr #0 {
  %3 = getelementptr inbounds nuw i8, ptr %0, i64 8
  %4 = load i64, ptr %3, align 8, !tbaa !5
  %5 = and i64 %4, 16
  %.not = icmp eq i64 %5, 0
  br i1 %.not, label %11, label %6

6:                                                ; preds = %2
  %7 = getelementptr inbounds nuw i8, ptr %0, i64 488
  %8 = load i64, ptr %7, align 8, !tbaa !28
  %.not6 = icmp ne i64 %8, 0
  %9 = icmp slt i64 %8, %1
  %or.cond = and i1 %.not6, %9
  br i1 %or.cond, label %10, label %11

10:                                               ; preds = %6
  tail call void @unblockClientOnTimeout(ptr noundef nonnull %0) #4
  br label %11

11:                                               ; preds = %2, %6, %10
  %.0 = phi i32 [ 1, %10 ], [ 0, %6 ], [ 0, %2 ]
  ret i32 %.0
}